target datalayout = "e-m:e-p270:32:32-p271:32:32-p272:64:64-i64:64-i128:128-f80:128-n8:16:32:64-S128"
target triple = "x86_64-pc-linux-gnu"

%struct._object = type { %union.anon, ptr }
%union.anon = type { i64 }
%struct.PyVarObject = type { %struct._object, i64 }
%struct.anon = type { i32, i32 }
%struct.PyTupleObject = type { %struct.PyVarObject, [1 x ptr] }

@PyExc_SystemError = external global ptr, align 8
@.str.8 = private unnamed_addr constant [26 x i8] c"Unmatched paren in format\00", align 1

; Function Attrs: alwaysinline nounwind uwtable
define internal i32 @_Py_IsImmortal(ptr noundef %0) #5 {
  %2 = alloca ptr, align 8
  store ptr %0, ptr %2, align 8, !tbaa !4
  %3 = load ptr, ptr %2, align 8, !tbaa !4
  %4 = getelementptr inbounds nuw %struct._object, ptr %3, i32 0, i32 0
  %5 = getelementptr inbounds nuw %struct.anon, ptr %4, i32 0, i32 0
  %6 = load i32, ptr %5, align 8, !tbaa !35
  %7 = icmp slt i32 %6, 0
  %8 = zext i1 %7 to i32
  ret i32 %8
}

; Function Attrs: nounwind uwtable
define internal i32 @check_end(ptr noundef %0, i8 noundef signext %1) #0 {
  %3 = alloca i32, align 4
  %4 = alloca ptr, align 8
  %5 = alloca i8, align 1
  %6 = alloca ptr, align 8
  %7 = alloca i32, align 4
  store ptr %0, ptr %4, align 8, !tbaa !38
  store i8 %1, ptr %5, align 1, !tbaa !35
  call void @llvm.lifetime.start.p0(i64 8, ptr %6) #7
  %8 = load ptr, ptr %4, align 8, !tbaa !38
  %9 = load ptr, ptr %8, align 8, !tbaa !27
  store ptr %9, ptr %6, align 8, !tbaa !27
  br label %10

10:                                               ; preds = %39, %2
  %11 = load ptr, ptr %6, align 8, !tbaa !27
  %12 = load i8, ptr %11, align 1, !tbaa !35
  %13 = sext i8 %12 to i32
  %14 = load i8, ptr %5, align 1, !tbaa !35
  %15 = sext i8 %14 to i32
  %16 = icmp ne i32 %13, %15
  br i1 %16, label %17, label %42

17:                                               ; preds = %10
  %18 = load ptr, ptr %6, align 8, !tbaa !27
  %19 = load i8, ptr %18, align 1, !tbaa !35
  %20 = sext i8 %19 to i32
  %21 = icmp ne i32 %20, 32
  br i1 %21, label %22, label %39

22:                                               ; preds = %17
  %23 = load ptr, ptr %6, align 8, !tbaa !27
  %24 = load i8, ptr %23, align 1, !tbaa !35
  %25 = sext i8 %24 to i32
  %26 = icmp ne i32 %25, 9
  br i1 %26, label %27, label %39

27:                                               ; preds = %22
  %28 = load ptr, ptr %6, align 8, !tbaa !27
  %29 = load i8, ptr %28, align 1, !tbaa !35
  %30 = sext i8 %29 to i32
  %31 = icmp ne i32 %30, 44
  br i1 %31, label %32, label %39

32:                                               ; preds = %27
  %33 = load ptr, ptr %6, align 8, !tbaa !27
  %34 = load i8, ptr %33, align 1, !tbaa !35
  %35 = sext i8 %34 to i32
  %36 = icmp ne i32 %35, 58
  br i1 %36, label %37, label %39

37:                                               ; preds = %32
  %38 = load ptr, ptr @PyExc_SystemError, align 8, !tbaa !4
  call void @PyErr_SetString(ptr noundef %38, ptr noundef @.str.8)
  store i32 0, ptr %3, align 4
  store i32 1, ptr %7, align 4
  br label %51

39:                                               ; preds = %32, %27, %22, %17
  %40 = load ptr, ptr %6, align 8, !tbaa !27
  %41 = getelementptr i8, ptr %40, i32 1
  store ptr %41, ptr %6, align 8, !tbaa !27
  br label %10, !llvm.loop !55

42:                                               ; preds = %10
  %43 = load i8, ptr %5, align 1, !tbaa !35
  %44 = icmp ne i8 %43, 0
  br i1 %44, label %45, label %48

45:                                               ; preds = %42
  %46 = load ptr, ptr %6, align 8, !tbaa !27
  %47 = getelementptr i8, ptr %46, i32 1
  store ptr %47, ptr %6, align 8, !tbaa !27
  br label %48

48:                                               ; preds = %45, %42
  %49 = load ptr, ptr %6, align 8, !tbaa !27
  %50 = load ptr, ptr %4, align 8, !tbaa !38
  store ptr %49, ptr %50, align 8, !tbaa !27
  store i32 1, ptr %3, align 4
  store i32 1, ptr %7, align 4
  br label %51

51:                                               ; preds = %48, %37
  call void @llvm.lifetime.end.p0(i64 8, ptr %6) #7
  %52 = load i32, ptr %3, align 4
  ret i32 %52
}

; Function Attrs: inlinehint nounwind uwtable
define internal void @PyTuple_SET_ITEM(ptr noundef %0, i64 noundef %1, ptr noundef %2) #2 {
  %4 = alloca ptr, align 8
  %5 = alloca i64, align 8
  %6 = alloca ptr, align 8
  %7 = alloca ptr, align 8
  store ptr %0, ptr %4, align 8, !tbaa !4
  store i64 %1, ptr %5, align 8, !tbaa !10
  store ptr %2, ptr %6, align 8, !tbaa !4
  call void @llvm.lifetime.start.p0(i64 8, ptr %7) #7
  %8 = load ptr, ptr %4, align 8, !tbaa !4
  store ptr %8, ptr %7, align 8, !tbaa !9
  %9 = load ptr, ptr %6, align 8, !tbaa !4
  %10 = load ptr, ptr %7, align 8, !tbaa !9
  %11 = getelementptr inbounds nuw %struct.PyTupleObject, ptr %10, i32 0, i32 1
  %12 = load i64, ptr %5, align 8, !tbaa !10
  %13 = getelementptr [1 x ptr], ptr %11, i64 0, i64 %12
  store ptr %9, ptr %13, align 8, !tbaa !4
  call void @llvm.lifetime.end.p0(i64 8, ptr %7) #7
  ret void
}

; Function Attrs: alwaysinline nounwind uwtable
define internal void @Py_DECREF(ptr noundef %0) #5 {
  %2 = alloca ptr, align 8
  store ptr %0, ptr %2, align 8, !tbaa !4
  %3 = load ptr, ptr %2, align 8, !tbaa !4
  %4 = call i32 @_Py_IsImmortal(ptr noundef %3)
  %5 = icmp ne i32 %4, 0
  br i1 %5, label %6, label %7

6:                                                ; preds = %1
  br label %16

7:                                                ; preds = %1
  %8 = load ptr, ptr %2, align 8, !tbaa !4
  %9 = getelementptr inbounds nuw %struct._object, ptr %8, i32 0, i32 0
  %10 = getelementptr inbounds nuw %struct.anon, ptr %9, i32 0, i32 0
  %11 = load i32, ptr %10, align 8, !tbaa !35
  %12 = add i32 %11, -1
  store i32 %12, ptr %10, align 8, !tbaa !35
  %13 = icmp eq i32 %12, 0
  br i1 %13, label %14, label %16

14:                                               ; preds = %7
  %15 = load ptr, ptr %2, align 8, !tbaa !4
  call void @_Py_Dealloc(ptr noundef %15)
  br label %16

16:                                               ; preds = %6, %14, %7
  ret void
}

; Function Attrs: nounwind uwtable
define internal ptr @do_mktuple(ptr noundef %0, ptr noundef %1, i8 noundef signext %2, i64 noundef %3) #0 {
  %5 = alloca ptr, align 8
  %6 = alloca ptr, align 8
  %7 = alloca ptr, align 8
  %8 = alloca i8, align 1
  %9 = alloca i64, align 8
  %10 = alloca ptr, align 8
  %11 = alloca i64, align 8
  %12 = alloca i32, align 4
  %13 = alloca ptr, align 8
  store ptr %0, ptr %6, align 8, !tbaa !38
  store ptr %1, ptr %7, align 8, !tbaa !28
  store i8 %2, ptr %8, align 1, !tbaa !35
  store i64 %3, ptr %9, align 8, !tbaa !10
  call void @llvm.lifetime.start.p0(i64 8, ptr %10) #7
  call void @llvm.lifetime.start.p0(i64 8, ptr %11) #7
  %14 = load i64, ptr %9, align 8, !tbaa !10
  %15 = icmp slt i64 %14, 0
  br i1 %15, label %16, label %17

16:                                               ; preds = %4
  store ptr null, ptr %5, align 8
  store i32 1, ptr %12, align 4
  br label %65

17:                                               ; preds = %4
  %18 = load i64, ptr %9, align 8, !tbaa !10
  %19 = call ptr @PyTuple_New(i64 noundef %18)
  store ptr %19, ptr %10, align 8, !tbaa !4
  %20 = icmp eq ptr %19, null
  br i1 %20, label %21, label %26

21:                                               ; preds = %17
  %22 = load ptr, ptr %6, align 8, !tbaa !38
  %23 = load ptr, ptr %7, align 8, !tbaa !28
  %24 = load i8, ptr %8, align 1, !tbaa !35
  %25 = load i64, ptr %9, align 8, !tbaa !10
  call void @do_ignore(ptr noundef %22, ptr noundef %23, i8 noundef signext %24, i64 noundef %25)
  store ptr null, ptr %5, align 8
  store i32 1, ptr %12, align 4
  br label %65

26:                                               ; preds = %17
  store i64 0, ptr %11, align 8, !tbaa !10
  br label %27

27:                                               ; preds = %53, %26
  %28 = load i64, ptr %11, align 8, !tbaa !10
  %29 = load i64, ptr %9, align 8, !tbaa !10
  %30 = icmp slt i64 %28, %29
  br i1 %30, label %31, label %56

31:                                               ; preds = %27
  call void @llvm.lifetime.start.p0(i64 8, ptr %13) #7
  %32 = load ptr, ptr %6, align 8, !tbaa !38
  %33 = load ptr, ptr %7, align 8, !tbaa !28
  %34 = call ptr @do_mkvalue(ptr noundef %32, ptr noundef %33)
  store ptr %34, ptr %13, align 8, !tbaa !4
  %35 = load ptr, ptr %13, align 8, !tbaa !4
  %36 = icmp eq ptr %35, null
  br i1 %36, label %37, label %46

37:                                               ; preds = %31
  %38 = load ptr, ptr %6, align 8, !tbaa !38
  %39 = load ptr, ptr %7, align 8, !tbaa !28
  %40 = load i8, ptr %8, align 1, !tbaa !35
  %41 = load i64, ptr %9, align 8, !tbaa !10
  %42 = load i64, ptr %11, align 8, !tbaa !10
  %43 = sub i64 %41, %42
  %44 = sub i64 %43, 1
  call void @do_ignore(ptr noundef %38, ptr noundef %39, i8 noundef signext %40, i64 noundef %44)
  %45 = load ptr, ptr %10, align 8, !tbaa !4
  call void @Py_DECREF(ptr noundef %45)
  store ptr null, ptr %5, align 8
  store i32 1, ptr %12, align 4
  br label %50

46:                                               ; preds = %31
  %47 = load ptr, ptr %10, align 8, !tbaa !4
  %48 = load i64, ptr %11, align 8, !tbaa !10
  %49 = load ptr, ptr %13, align 8, !tbaa !4
  call void @PyTuple_SET_ITEM(ptr noundef %47, i64 noundef %48, ptr noundef %49)
  store i32 0, ptr %12, align 4
  br label %50

50:                                               ; preds = %46, %37
  call void @llvm.lifetime.end.p0(i64 8, ptr %13) #7
  %51 = load i32, ptr %12, align 4
  switch i32 %51, label %65 [
    i32 0, label %52
  ]

52:                                               ; preds = %50
  br label %53

53:                                               ; preds = %52
  %54 = load i64, ptr %11, align 8, !tbaa !10
  %55 = add i64 %54, 1
  store i64 %55, ptr %11, align 8, !tbaa !10
  br label %27, !llvm.loop !49

56:                                               ; preds = %27
  %57 = load ptr, ptr %6, align 8, !tbaa !38
  %58 = load i8, ptr %8, align 1, !tbaa !35
  %59 = call i32 @check_end(ptr noundef %57, i8 noundef signext %58)
  %60 = icmp ne i32 %59, 0
  br i1 %60, label %63, label %61

61:                                               ; preds = %56
  %62 = load ptr, ptr %10, align 8, !tbaa !4
  call void @Py_DECREF(ptr noundef %62)
  store ptr null, ptr %5, align 8
  store i32 1, ptr %12, align 4
  br label %65

63:                                               ; preds = %56
  %64 = load ptr, ptr %10, align 8, !tbaa !4
  store ptr %64, ptr %5, align 8
  store i32 1, ptr %12, align 4
  br label %65

65:                                               ; preds = %63, %61, %50, %21, %16
  call void @llvm.lifetime.end.p0(i64 8, ptr %11) #7
  call void @llvm.lifetime.end.p0(i64 8, ptr %10) #7
  %66 = load ptr, ptr %5, align 8
  ret ptr %66
}