; Function Attrs: nounwind uwtable
define internal fastcc ptr @do_mktuple(ptr noundef nonnull captures(none) %0, ptr noundef nonnull %1, i8 noundef signext range(i8 0, 42) %2, i64 noundef %3) unnamed_addr #0 {
  %5 = icmp slt i64 %3, 0
  br i1 %5, label %Py_DECREF.exit, label %6

6:                                                ; preds = %4
  %7 = tail call ptr @PyTuple_New(i64 noundef %3) #7
  %8 = icmp eq ptr %7, null
  br i1 %8, label %10, label %.preheader

.preheader:                                       ; preds = %6
  %.not = icmp eq i64 %3, 0
  br i1 %.not, label %._crit_edge, label %.lr.ph

.lr.ph:                                           ; preds = %.preheader
  %9 = getelementptr inbounds nuw i8, ptr %7, i64 24
  br label %11

10:                                               ; preds = %6
  tail call fastcc void @do_ignore(ptr noundef %0, ptr noundef %1, i8 noundef signext %2, i64 noundef %3)
  br label %Py_DECREF.exit

11:                                               ; preds = %.lr.ph, %21
  %.02739 = phi i64 [ 0, %.lr.ph ], [ %23, %21 ]
  %12 = tail call fastcc ptr @do_mkvalue(ptr noundef %0, ptr noundef %1)
  %.not31 = icmp eq ptr %12, null
  br i1 %.not31, label %13, label %21

13:                                               ; preds = %11
  %14 = xor i64 %.02739, -1
  %15 = add nsw i64 %3, %14
  tail call fastcc void @do_ignore(ptr noundef %0, ptr noundef %1, i8 noundef signext %2, i64 noundef %15)
  %16 = load i32, ptr %7, align 8, !tbaa !29
  %.not.i32 = icmp sgt i32 %16, -1
  br i1 %.not.i32, label %17, label %Py_DECREF.exit

17:                                               ; preds = %13
  %18 = add nsw i32 %16, -1
  store i32 %18, ptr %7, align 8, !tbaa !29
  %19 = icmp eq i32 %18, 0
  br i1 %19, label %20, label %Py_DECREF.exit

20:                                               ; preds = %17
  tail call void @_Py_Dealloc(ptr noundef nonnull %7) #7
  br label %Py_DECREF.exit

21:                                               ; preds = %11
  %22 = getelementptr [1 x ptr], ptr %9, i64 0, i64 %.02739
  store ptr %12, ptr %22, align 8, !tbaa !23
  %23 = add nuw nsw i64 %.02739, 1
  %exitcond.not = icmp eq i64 %23, %3
  br i1 %exitcond.not, label %._crit_edge, label %11, !llvm.loop !46

._crit_edge:                                      ; preds = %21, %.preheader
  %24 = load ptr, ptr %0, align 8, !tbaa !26
  %25 = load i8, ptr %24, align 1, !tbaa !29
  %.not20.i = icmp eq i8 %25, %2
  br i1 %.not20.i, label %check_end.exit, label %.lr.ph.i

.lr.ph.i:                                         ; preds = %._crit_edge, %27
  %26 = phi i8 [ %29, %27 ], [ %25, %._crit_edge ]
  %.021.i = phi ptr [ %28, %27 ], [ %24, %._crit_edge ]
  switch i8 %26, label %30 [
    i8 32, label %27
    i8 9, label %27
    i8 44, label %27
    i8 58, label %27
  ]

27:                                               ; preds = %.lr.ph.i, %.lr.ph.i, %.lr.ph.i, %.lr.ph.i
  %28 = getelementptr i8, ptr %.021.i, i64 1
  %29 = load i8, ptr %28, align 1, !tbaa !29
  %.not.i35 = icmp eq i8 %29, %2
  br i1 %.not.i35, label %check_end.exit, label %.lr.ph.i, !llvm.loop !30

check_end.exit:                                   ; preds = %27, %._crit_edge
  %.0.lcssa.i = phi ptr [ %24, %._crit_edge ], [ %28, %27 ]
  %.not14.i = icmp ne i8 %2, 0
  %spec.select.idx.i = zext i1 %.not14.i to i64
  %spec.select.i = getelementptr i8, ptr %.0.lcssa.i, i64 %spec.select.idx.i
  store ptr %spec.select.i, ptr %0, align 8, !tbaa !26
  br label %Py_DECREF.exit

30:                                               ; preds = %.lr.ph.i
  %31 = load ptr, ptr @PyExc_SystemError, align 8, !tbaa !23
  tail call void @PyErr_SetString(ptr noundef %31, ptr noundef nonnull @.str.8) #7
  %32 = load i32, ptr %7, align 8, !tbaa !29
  %.not.i = icmp sgt i32 %32, -1
  br i1 %.not.i, label %33, label %Py_DECREF.exit

33:                                               ; preds = %30
  %34 = add nsw i32 %32, -1
  store i32 %34, ptr %7, align 8, !tbaa !29
  %35 = icmp eq i32 %34, 0
  br i1 %35, label %36, label %Py_DECREF.exit

36:                                               ; preds = %33
  tail call void @_Py_Dealloc(ptr noundef nonnull %7) #7
  br label %Py_DECREF.exit

Py_DECREF.exit:                                   ; preds = %13, %17, %20, %36, %33, %30, %check_end.exit, %4, %10
  %.0 = phi ptr [ null, %10 ], [ null, %4 ], [ %7, %check_end.exit ], [ null, %30 ], [ null, %33 ], [ null, %36 ], [ null, %20 ], [ null, %17 ], [ null, %13 ]
  ret ptr %.0
}